target datalayout = "e-m:e-p270:32:32-p271:32:32-p272:64:64-i64:64-i128:128-f80:128-n8:16:32:64-S128"
target triple = "x86_64-pc-linux-gnu"

%struct._generic_N_Vector = type { ptr, ptr, ptr }
%struct._N_VectorContent_Serial = type { i64, i32, ptr }
%struct._generic_SUNLinearSolver = type { ptr, ptr, ptr }

@stderr = external global ptr, align 8
@.str.30 = private unnamed_addr constant [26 x i8] c"IDAGetNonlinearSystemData\00", align 1
@.str.31 = private unnamed_addr constant [55 x i8] c"\0ASUNDIALS_ERROR: %s() failed - returned NULL pointer\0A\0A\00", align 1
@.str.32 = private unnamed_addr constant [46 x i8] c"\0ASUNDIALS_ERROR: %s() failed with flag = %d\0A\0A\00", align 1
@.str.33 = private unnamed_addr constant [53 x i8] c"\0AMEMORY_ERROR: %s() failed - returned NULL pointer\0A\0A\00", align 1

; Function Attrs: nounwind uwtable
define internal i32 @check_retval(ptr noundef %0, ptr noundef %1, i32 noundef %2) #0 {
  %4 = alloca i32, align 4
  %5 = alloca ptr, align 8
  %6 = alloca ptr, align 8
  %7 = alloca i32, align 4
  %8 = alloca ptr, align 8
  %9 = alloca i32, align 4
  store ptr %0, ptr %5, align 8, !tbaa !15
  store ptr %1, ptr %6, align 8, !tbaa !28
  store i32 %2, ptr %7, align 4, !tbaa !16
  call void @llvm.lifetime.start.p0(i64 8, ptr %8) #5
  %10 = load i32, ptr %7, align 4, !tbaa !16
  %11 = icmp eq i32 %10, 0
  br i1 %11, label %12, label %19

12:                                               ; preds = %3
  %13 = load ptr, ptr %5, align 8, !tbaa !15
  %14 = icmp eq ptr %13, null
  br i1 %14, label %15, label %19

15:                                               ; preds = %12
  %16 = load ptr, ptr @stderr, align 8, !tbaa !26
  %17 = load ptr, ptr %6, align 8, !tbaa !28
  %18 = call i32 (ptr, ptr, ...) @fprintf(ptr noundef %16, ptr noundef @.str.31, ptr noundef %17) #5
  store i32 1, ptr %4, align 4
  store i32 1, ptr %9, align 4
  br label %47

19:                                               ; preds = %12, %3
  %20 = load i32, ptr %7, align 4, !tbaa !16
  %21 = icmp eq i32 %20, 1
  br i1 %21, label %22, label %34

22:                                               ; preds = %19
  %23 = load ptr, ptr %5, align 8, !tbaa !15
  store ptr %23, ptr %8, align 8, !tbaa !30
  %24 = load ptr, ptr %8, align 8, !tbaa !30
  %25 = load i32, ptr %24, align 4, !tbaa !16
  %26 = icmp slt i32 %25, 0
  br i1 %26, label %27, label %33

27:                                               ; preds = %22
  %28 = load ptr, ptr @stderr, align 8, !tbaa !26
  %29 = load ptr, ptr %6, align 8, !tbaa !28
  %30 = load ptr, ptr %8, align 8, !tbaa !30
  %31 = load i32, ptr %30, align 4, !tbaa !16
  %32 = call i32 (ptr, ptr, ...) @fprintf(ptr noundef %28, ptr noundef @.str.32, ptr noundef %29, i32 noundef %31) #5
  store i32 1, ptr %4, align 4
  store i32 1, ptr %9, align 4
  br label %47

33:                                               ; preds = %22
  br label %45

34:                                               ; preds = %19
  %35 = load i32, ptr %7, align 4, !tbaa !16
  %36 = icmp eq i32 %35, 2
  br i1 %36, label %37, label %44

37:                                               ; preds = %34
  %38 = load ptr, ptr %5, align 8, !tbaa !15
  %39 = icmp eq ptr %38, null
  br i1 %39, label %40, label %44

40:                                               ; preds = %37
  %41 = load ptr, ptr @stderr, align 8, !tbaa !26
  %42 = load ptr, ptr %6, align 8, !tbaa !28
  %43 = call i32 (ptr, ptr, ...) @fprintf(ptr noundef %41, ptr noundef @.str.33, ptr noundef %42) #5
  store i32 1, ptr %4, align 4
  store i32 1, ptr %9, align 4
  br label %47

44:                                               ; preds = %37, %34
  br label %45

45:                                               ; preds = %44, %33
  br label %46

46:                                               ; preds = %45
  store i32 0, ptr %4, align 4
  store i32 1, ptr %9, align 4
  br label %47

47:                                               ; preds = %46, %40, %27, %15
  call void @llvm.lifetime.end.p0(i64 8, ptr %8) #5
  %48 = load i32, ptr %4, align 4
  ret i32 %48
}

; Function Attrs: nounwind uwtable
define internal i32 @MatrixEmbeddedLSSolve(ptr noundef %0, ptr noundef %1, ptr noundef %2, ptr noundef %3, double noundef %4) #0 {
  %6 = alloca i32, align 4
  %7 = alloca ptr, align 8
  %8 = alloca ptr, align 8
  %9 = alloca ptr, align 8
  %10 = alloca ptr, align 8
  %11 = alloca double, align 8
  %12 = alloca i32, align 4
  %13 = alloca ptr, align 8
  %14 = alloca ptr, align 8
  %15 = alloca ptr, align 8
  %16 = alloca ptr, align 8
  %17 = alloca ptr, align 8
  %18 = alloca double, align 8
  %19 = alloca double, align 8
  %20 = alloca ptr, align 8
  %21 = alloca ptr, align 8
  %22 = alloca double, align 8
  %23 = alloca double, align 8
  %24 = alloca double, align 8
  %25 = alloca double, align 8
  %26 = alloca double, align 8
  %27 = alloca double, align 8
  %28 = alloca double, align 8
  %29 = alloca double, align 8
  %30 = alloca i32, align 4
  store ptr %0, ptr %7, align 8, !tbaa !13
  store ptr %1, ptr %8, align 8, !tbaa !41
  store ptr %2, ptr %9, align 8, !tbaa !10
  store ptr %3, ptr %10, align 8, !tbaa !10
  store double %4, ptr %11, align 8, !tbaa !4
  call void @llvm.lifetime.start.p0(i64 4, ptr %12) #5
  call void @llvm.lifetime.start.p0(i64 8, ptr %13) #5
  call void @llvm.lifetime.start.p0(i64 8, ptr %14) #5
  call void @llvm.lifetime.start.p0(i64 8, ptr %15) #5
  call void @llvm.lifetime.start.p0(i64 8, ptr %16) #5
  call void @llvm.lifetime.start.p0(i64 8, ptr %17) #5
  call void @llvm.lifetime.start.p0(i64 8, ptr %18) #5
  call void @llvm.lifetime.start.p0(i64 8, ptr %19) #5
  call void @llvm.lifetime.start.p0(i64 8, ptr %20) #5
  call void @llvm.lifetime.start.p0(i64 8, ptr %21) #5
  call void @llvm.lifetime.start.p0(i64 8, ptr %22) #5
  call void @llvm.lifetime.start.p0(i64 8, ptr %23) #5
  call void @llvm.lifetime.start.p0(i64 8, ptr %24) #5
  call void @llvm.lifetime.start.p0(i64 8, ptr %25) #5
  call void @llvm.lifetime.start.p0(i64 8, ptr %26) #5
  call void @llvm.lifetime.start.p0(i64 8, ptr %27) #5
  call void @llvm.lifetime.start.p0(i64 8, ptr %28) #5
  store double 1.000000e+00, ptr %28, align 8, !tbaa !4
  call void @llvm.lifetime.start.p0(i64 8, ptr %29) #5
  store double 2.000000e+00, ptr %29, align 8, !tbaa !4
  %31 = load ptr, ptr %7, align 8, !tbaa !13
  %32 = getelementptr inbounds nuw %struct._generic_SUNLinearSolver, ptr %31, i32 0, i32 0
  %33 = load ptr, ptr %32, align 8, !tbaa !40
  %34 = call i32 @IDAGetNonlinearSystemData(ptr noundef %33, ptr noundef %18, ptr noundef %13, ptr noundef %14, ptr noundef %15, ptr noundef %16, ptr noundef %17, ptr noundef %19, ptr noundef %20)
  store i32 %34, ptr %12, align 4, !tbaa !16
  %35 = call i32 @check_retval(ptr noundef %12, ptr noundef @.str.30, i32 noundef 1)
  %36 = icmp ne i32 %35, 0
  br i1 %36, label %37, label %38

37:                                               ; preds = %5
  store i32 -1, ptr %6, align 4
  store i32 1, ptr %30, align 4
  br label %102

38:                                               ; preds = %5
  %39 = load ptr, ptr %20, align 8, !tbaa !15
  store ptr %39, ptr %21, align 8, !tbaa !32
  %40 = load ptr, ptr %21, align 8, !tbaa !32
  %41 = getelementptr inbounds double, ptr %40, i64 0
  %42 = load double, ptr %41, align 8, !tbaa !4
  store double %42, ptr %22, align 8, !tbaa !4
  %43 = load double, ptr %19, align 8, !tbaa !4
  %44 = fneg double %43
  %45 = load double, ptr %22, align 8, !tbaa !4
  %46 = load double, ptr %28, align 8, !tbaa !4
  %47 = fsub double %45, %46
  %48 = load double, ptr %18, align 8, !tbaa !4
  %49 = load double, ptr %29, align 8, !tbaa !4
  %50 = fsub double %48, %49
  %51 = fdiv double %47, %50
  %52 = fsub double %44, %51
  %53 = load double, ptr %28, align 8, !tbaa !4
  %54 = fsub double %52, %53
  store double %54, ptr %23, align 8, !tbaa !4
  %55 = load double, ptr %22, align 8, !tbaa !4
  %56 = load double, ptr %28, align 8, !tbaa !4
  %57 = fsub double %55, %56
  store double %57, ptr %24, align 8, !tbaa !4
  %58 = load double, ptr %18, align 8, !tbaa !4
  %59 = load double, ptr %29, align 8, !tbaa !4
  %60 = fadd double %58, %59
  store double %60, ptr %25, align 8, !tbaa !4
  %61 = load ptr, ptr %10, align 8, !tbaa !10
  %62 = getelementptr inbounds nuw %struct._generic_N_Vector, ptr %61, i32 0, i32 0
  %63 = load ptr, ptr %62, align 8, !tbaa !20
  %64 = getelementptr inbounds nuw %struct._N_VectorContent_Serial, ptr %63, i32 0, i32 2
  %65 = load ptr, ptr %64, align 8, !tbaa !23
  %66 = getelementptr inbounds double, ptr %65, i64 0
  %67 = load double, ptr %66, align 8, !tbaa !4
  store double %67, ptr %26, align 8, !tbaa !4
  %68 = load ptr, ptr %10, align 8, !tbaa !10
  %69 = getelementptr inbounds nuw %struct._generic_N_Vector, ptr %68, i32 0, i32 0
  %70 = load ptr, ptr %69, align 8, !tbaa !20
  %71 = getelementptr inbounds nuw %struct._N_VectorContent_Serial, ptr %70, i32 0, i32 2
  %72 = load ptr, ptr %71, align 8, !tbaa !23
  %73 = getelementptr inbounds double, ptr %72, i64 1
  %74 = load double, ptr %73, align 8, !tbaa !4
  store double %74, ptr %27, align 8, !tbaa !4
  %75 = load double, ptr %27, align 8, !tbaa !4
  %76 = load double, ptr %25, align 8, !tbaa !4
  %77 = fdiv double %75, %76
  %78 = load ptr, ptr %9, align 8, !tbaa !10
  %79 = getelementptr inbounds nuw %struct._generic_N_Vector, ptr %78, i32 0, i32 0
  %80 = load ptr, ptr %79, align 8, !tbaa !20
  %81 = getelementptr inbounds nuw %struct._N_VectorContent_Serial, ptr %80, i32 0, i32 2
  %82 = load ptr, ptr %81, align 8, !tbaa !23
  %83 = getelementptr inbounds double, ptr %82, i64 0
  store double %77, ptr %83, align 8, !tbaa !4
  %84 = load double, ptr %23, align 8, !tbaa !4
  %85 = load double, ptr %27, align 8, !tbaa !4
  %86 = load double, ptr %25, align 8, !tbaa !4
  %87 = load double, ptr %26, align 8, !tbaa !4
  %88 = fmul double %86, %87
  %89 = fneg double %88
  %90 = call double @llvm.fmuladd.f64(double %84, double %85, double %89)
  %91 = fneg double %90
  %92 = load double, ptr %24, align 8, !tbaa !4
  %93 = load double, ptr %25, align 8, !tbaa !4
  %94 = fmul double %92, %93
  %95 = fdiv double %91, %94
  %96 = load ptr, ptr %9, align 8, !tbaa !10
  %97 = getelementptr inbounds nuw %struct._generic_N_Vector, ptr %96, i32 0, i32 0
  %98 = load ptr, ptr %97, align 8, !tbaa !20
  %99 = getelementptr inbounds nuw %struct._N_VectorContent_Serial, ptr %98, i32 0, i32 2
  %100 = load ptr, ptr %99, align 8, !tbaa !23
  %101 = getelementptr inbounds double, ptr %100, i64 1
  store double %95, ptr %101, align 8, !tbaa !4
  store i32 0, ptr %6, align 4
  store i32 1, ptr %30, align 4
  br label %102

102:                                              ; preds = %38, %37
  call void @llvm.lifetime.end.p0(i64 8, ptr %29) #5
  call void @llvm.lifetime.end.p0(i64 8, ptr %28) #5
  call void @llvm.lifetime.end.p0(i64 8, ptr %27) #5
  call void @llvm.lifetime.end.p0(i64 8, ptr %26) #5
  call void @llvm.lifetime.end.p0(i64 8, ptr %25) #5
  call void @llvm.lifetime.end.p0(i64 8, ptr %24) #5
  call void @llvm.lifetime.end.p0(i64 8, ptr %23) #5
  call void @llvm.lifetime.end.p0(i64 8, ptr %22) #5
  call void @llvm.lifetime.end.p0(i64 8, ptr %21) #5
  call void @llvm.lifetime.end.p0(i64 8, ptr %20) #5
  call void @llvm.lifetime.end.p0(i64 8, ptr %19) #5
  call void @llvm.lifetime.end.p0(i64 8, ptr %18) #5
  call void @llvm.lifetime.end.p0(i64 8, ptr %17) #5
  call void @llvm.lifetime.end.p0(i64 8, ptr %16) #5
  call void @llvm.lifetime.end.p0(i64 8, ptr %15) #5
  call void @llvm.lifetime.end.p0(i64 8, ptr %14) #5
  call void @llvm.lifetime.end.p0(i64 8, ptr %13) #5
  call void @llvm.lifetime.end.p0(i64 4, ptr %12) #5
  %103 = load i32, ptr %6, align 4
  ret i32 %103
}