; Function Attrs: nounwind uwtable
define internal range(i32 -1, 1) i32 @MatrixEmbeddedLSSolve(ptr noundef readonly captures(none) %0, ptr readnone captures(none) %1, ptr noundef readonly captures(none) %2, ptr noundef readonly captures(none) %3, double %4) #0 {
  %6 = alloca ptr, align 8
  %7 = alloca ptr, align 8
  %8 = alloca ptr, align 8
  %9 = alloca ptr, align 8
  %10 = alloca ptr, align 8
  %11 = alloca double, align 8
  %12 = alloca double, align 8
  %13 = alloca ptr, align 8
  call void @llvm.lifetime.start.p0(i64 8, ptr nonnull %6) #9
  call void @llvm.lifetime.start.p0(i64 8, ptr nonnull %7) #9
  call void @llvm.lifetime.start.p0(i64 8, ptr nonnull %8) #9
  call void @llvm.lifetime.start.p0(i64 8, ptr nonnull %9) #9
  call void @llvm.lifetime.start.p0(i64 8, ptr nonnull %10) #9
  call void @llvm.lifetime.start.p0(i64 8, ptr nonnull %11) #9
  call void @llvm.lifetime.start.p0(i64 8, ptr nonnull %12) #9
  call void @llvm.lifetime.start.p0(i64 8, ptr nonnull %13) #9
  %14 = load ptr, ptr %0, align 8, !tbaa !29
  %15 = call i32 @IDAGetNonlinearSystemData(ptr noundef %14, ptr noundef nonnull %11, ptr noundef nonnull %6, ptr noundef nonnull %7, ptr noundef nonnull %8, ptr noundef nonnull %9, ptr noundef nonnull %10, ptr noundef nonnull %12, ptr noundef nonnull %13) #9
  %16 = icmp slt i32 %15, 0
  br i1 %16, label %check_retval.exit, label %19

check_retval.exit:                                ; preds = %5
  %17 = load ptr, ptr @stderr, align 8, !tbaa !8
  %18 = call i32 (ptr, ptr, ...) @fprintf(ptr noundef %17, ptr noundef nonnull @.str.32, ptr noundef nonnull @.str.30, i32 noundef %15) #10
  br label %48

19:                                               ; preds = %5
  %20 = load ptr, ptr %13, align 8, !tbaa !21
  %21 = load double, ptr %20, align 8, !tbaa !4
  %22 = load double, ptr %12, align 8, !tbaa !4
  %23 = fneg double %22
  %24 = fadd double %21, -1.000000e+00
  %25 = load double, ptr %11, align 8, !tbaa !4
  %26 = fadd double %25, -2.000000e+00
  %27 = fdiv double %24, %26
  %28 = fsub double %23, %27
  %29 = fadd double %28, -1.000000e+00
  %30 = fadd double %25, 2.000000e+00
  %31 = load ptr, ptr %3, align 8, !tbaa !13
  %32 = getelementptr inbounds nuw i8, ptr %31, i64 16
  %33 = load ptr, ptr %32, align 8, !tbaa !16
  %34 = load double, ptr %33, align 8, !tbaa !4
  %35 = getelementptr inbounds nuw i8, ptr %33, i64 8
  %36 = load double, ptr %35, align 8, !tbaa !4
  %37 = fdiv double %36, %30
  %38 = load ptr, ptr %2, align 8, !tbaa !13
  %39 = getelementptr inbounds nuw i8, ptr %38, i64 16
  %40 = load ptr, ptr %39, align 8, !tbaa !16
  store double %37, ptr %40, align 8, !tbaa !4
  %41 = fneg double %34
  %42 = fmul double %30, %41
  %43 = call double @llvm.fmuladd.f64(double %29, double %36, double %42)
  %44 = fneg double %43
  %45 = fmul double %24, %30
  %46 = fdiv double %44, %45
  %47 = getelementptr inbounds nuw i8, ptr %40, i64 8
  store double %46, ptr %47, align 8, !tbaa !4
  br label %48

48:                                               ; preds = %check_retval.exit, %19
  %.0 = phi i32 [ 0, %19 ], [ -1, %check_retval.exit ]
  call void @llvm.lifetime.end.p0(i64 8, ptr nonnull %13) #9
  call void @llvm.lifetime.end.p0(i64 8, ptr nonnull %12) #9
  call void @llvm.lifetime.end.p0(i64 8, ptr nonnull %11) #9
  call void @llvm.lifetime.end.p0(i64 8, ptr nonnull %10) #9
  call void @llvm.lifetime.end.p0(i64 8, ptr nonnull %9) #9
  call void @llvm.lifetime.end.p0(i64 8, ptr nonnull %8) #9
  call void @llvm.lifetime.end.p0(i64 8, ptr nonnull %7) #9
  call void @llvm.lifetime.end.p0(i64 8, ptr nonnull %6) #9
  ret i32 %.0
}